target datalayout = "e-m:e-p270:32:32-p271:32:32-p272:64:64-i64:64-i128:128-f80:128-n8:16:32:64-S128"
target triple = "x86_64-pc-linux-gnu"

; Function Attrs: nounwind uwtable
define internal i64 @adler32_combine_(i64 noundef %0, i64 noundef %1, i64 noundef %2) #0 {
  %4 = alloca i64, align 8
  %5 = alloca i64, align 8
  %6 = alloca i64, align 8
  %7 = alloca i64, align 8
  %8 = alloca i64, align 8
  %9 = alloca i32, align 4
  store i64 %0, ptr %4, align 8
  store i64 %1, ptr %5, align 8
  store i64 %2, ptr %6, align 8
  %10 = load i64, ptr %6, align 8
  %11 = urem i64 %10, 65521
  %12 = trunc i64 %11 to i32
  store i32 %12, ptr %9, align 4
  %13 = load i64, ptr %4, align 8
  %14 = and i64 %13, 65535
  store i64 %14, ptr %7, align 8
  %15 = load i32, ptr %9, align 4
  %16 = zext i32 %15 to i64
  %17 = load i64, ptr %7, align 8
  %18 = mul i64 %16, %17
  store i64 %18, ptr %8, align 8
  %19 = load i64, ptr %8, align 8
  %20 = urem i64 %19, 65521
  store i64 %20, ptr %8, align 8
  %21 = load i64, ptr %5, align 8
  %22 = and i64 %21, 65535
  %23 = add i64 %22, 65521
  %24 = sub i64 %23, 1
  %25 = load i64, ptr %7, align 8
  %26 = add i64 %25, %24
  store i64 %26, ptr %7, align 8
  %27 = load i64, ptr %4, align 8
  %28 = lshr i64 %27, 16
  %29 = and i64 %28, 65535
  %30 = load i64, ptr %5, align 8
  %31 = lshr i64 %30, 16
  %32 = and i64 %31, 65535
  %33 = add i64 %29, %32
  %34 = add i64 %33, 65521
  %35 = load i32, ptr %9, align 4
  %36 = zext i32 %35 to i64
  %37 = sub i64 %34, %36
  %38 = load i64, ptr %8, align 8
  %39 = add i64 %38, %37
  store i64 %39, ptr %8, align 8
  %40 = load i64, ptr %7, align 8
  %41 = icmp uge i64 %40, 65521
  br i1 %41, label %42, label %45

42:                                               ; preds = %3
  %43 = load i64, ptr %7, align 8
  %44 = sub i64 %43, 65521
  store i64 %44, ptr %7, align 8
  br label %45

45:                                               ; preds = %42, %3
  %46 = load i64, ptr %7, align 8
  %47 = icmp uge i64 %46, 65521
  br i1 %47, label %48, label %51

48:                                               ; preds = %45
  %49 = load i64, ptr %7, align 8
  %50 = sub i64 %49, 65521
  store i64 %50, ptr %7, align 8
  br label %51

51:                                               ; preds = %48, %45
  %52 = load i64, ptr %8, align 8
  %53 = icmp uge i64 %52, 131042
  br i1 %53, label %54, label %57

54:                                               ; preds = %51
  %55 = load i64, ptr %8, align 8
  %56 = sub i64 %55, 131042
  store i64 %56, ptr %8, align 8
  br label %57

57:                                               ; preds = %54, %51
  %58 = load i64, ptr %8, align 8
  %59 = icmp uge i64 %58, 65521
  br i1 %59, label %60, label %63

60:                                               ; preds = %57
  %61 = load i64, ptr %8, align 8
  %62 = sub i64 %61, 65521
  store i64 %62, ptr %8, align 8
  br label %63

63:                                               ; preds = %60, %57
  %64 = load i64, ptr %7, align 8
  %65 = load i64, ptr %8, align 8
  %66 = shl i64 %65, 16
  %67 = or i64 %64, %66
  ret i64 %67
}

; Function Attrs: nounwind uwtable
define i64 @adler32_combine64(i64 noundef %0, i64 noundef %1, i64 noundef %2) #0 {
  %4 = alloca i64, align 8
  %5 = alloca i64, align 8
  %6 = alloca i64, align 8
  store i64 %0, ptr %4, align 8
  store i64 %1, ptr %5, align 8
  store i64 %2, ptr %6, align 8
  %7 = load i64, ptr %4, align 8
  %8 = load i64, ptr %5, align 8
  %9 = load i64, ptr %6, align 8
  %10 = call i64 @adler32_combine_(i64 noundef %7, i64 noundef %8, i64 noundef %9)
  ret i64 %10
}